; ModuleID = 'source-C-CXX/36/780.c'
source_filename = "source-C-CXX/36/780.c"
target datalayout = "e-m:e-p270:32:32-p271:32:32-p272:64:64-i64:64-f80:128-n8:16:32:64-S128"
target triple = "x86_64-pc-linux-gnu"

@.str = private unnamed_addr constant [3 x i8] c"%d\00", align 1
@.str.1 = private unnamed_addr constant [3 x i8] c"%s\00", align 1
@.str.2 = private unnamed_addr constant [4 x i8] c"%c\0A\00", align 1
@str = private unnamed_addr constant [3 x i8] c"no\00", align 1

; Function Attrs: nofree nounwind sspstrong uwtable
define dso_local i32 @main() local_unnamed_addr #0 {
  %1 = alloca i32, align 4
  %2 = alloca [100000 x i8], align 16
  %3 = bitcast i32* %1 to i8*
  call void @llvm.lifetime.start.p0i8(i64 4, i8* nonnull %3) #5
  %4 = getelementptr inbounds [100000 x i8], [100000 x i8]* %2, i64 0, i64 0
  call void @llvm.lifetime.start.p0i8(i64 100000, i8* nonnull %4) #5
  %5 = call i32 (i8*, ...) @__isoc99_scanf(i8* getelementptr inbounds ([3 x i8], [3 x i8]* @.str, i64 0, i64 0), i32* nonnull %1)
  %6 = load i32, i32* %1, align 4, !tbaa !5
  %7 = icmp sgt i32 %6, 0
  br i1 %7, label %8, label %55

8:                                                ; preds = %0, %51
  %9 = phi i32 [ %52, %51 ], [ 0, %0 ]
  %10 = call i32 (i8*, ...) @__isoc99_scanf(i8* getelementptr inbounds ([3 x i8], [3 x i8]* @.str.1, i64 0, i64 0), [100000 x i8]* nonnull %2)
  %11 = call i64 @strlen(i8* noundef nonnull %4) #6
  %12 = trunc i64 %11 to i32
  %13 = icmp sgt i32 %12, 0
  br i1 %13, label %14, label %51

14:                                               ; preds = %8
  %15 = add i64 %11, 4294967295
  %16 = and i64 %15, 4294967295
  %17 = and i64 %11, 4294967295
  br label %18

18:                                               ; preds = %14, %48
  %19 = phi i64 [ 0, %14 ], [ %49, %48 ]
  %20 = getelementptr inbounds [100000 x i8], [100000 x i8]* %2, i64 0, i64 %19
  br label %21

21:                                               ; preds = %18, %37
  %22 = phi i64 [ 0, %18 ], [ %39, %37 ]
  %23 = phi i8 [ 90, %18 ], [ %38, %37 ]
  %24 = phi i32 [ 0, %18 ], [ %30, %37 ]
  %25 = getelementptr inbounds [100000 x i8], [100000 x i8]* %2, i64 0, i64 %22
  %26 = load i8, i8* %25, align 1, !tbaa !9
  %27 = load i8, i8* %20, align 1, !tbaa !9
  %28 = icmp eq i8 %26, %27
  %29 = zext i1 %28 to i32
  %30 = add nuw nsw i32 %24, %29
  %31 = icmp eq i32 %30, 2
  br i1 %31, label %41, label %32

32:                                               ; preds = %21
  %33 = icmp eq i64 %22, %16
  br i1 %33, label %34, label %37

34:                                               ; preds = %32
  %35 = sext i8 %27 to i32
  %36 = call i32 (i8*, ...) @printf(i8* nonnull dereferenceable(1) getelementptr inbounds ([4 x i8], [4 x i8]* @.str.2, i64 0, i64 0), i32 %35)
  br label %37

37:                                               ; preds = %34, %32
  %38 = phi i8 [ %27, %34 ], [ %23, %32 ]
  %39 = add nuw nsw i64 %22, 1
  %40 = icmp eq i64 %39, %17
  br i1 %40, label %41, label %21, !llvm.loop !10

41:                                               ; preds = %37, %21
  %42 = phi i8 [ %23, %21 ], [ %38, %37 ]
  %43 = icmp eq i8 %42, 90
  br i1 %43, label %44, label %51

44:                                               ; preds = %41
  %45 = icmp eq i64 %19, %16
  br i1 %45, label %46, label %48

46:                                               ; preds = %44
  %47 = call i32 @puts(i8* nonnull dereferenceable(1) getelementptr inbounds ([3 x i8], [3 x i8]* @str, i64 0, i64 0))
  br label %48

48:                                               ; preds = %46, %44
  %49 = add nuw nsw i64 %19, 1
  %50 = icmp eq i64 %49, %17
  br i1 %50, label %51, label %18, !llvm.loop !12

51:                                               ; preds = %48, %41, %8
  %52 = add nuw nsw i32 %9, 1
  %53 = load i32, i32* %1, align 4, !tbaa !5
  %54 = icmp slt i32 %52, %53
  br i1 %54, label %8, label %55, !llvm.loop !13

55:                                               ; preds = %51, %0
  call void @llvm.lifetime.end.p0i8(i64 100000, i8* nonnull %4) #5
  call void @llvm.lifetime.end.p0i8(i64 4, i8* nonnull %3) #5
  ret i32 0
}

; Function Attrs: argmemonly mustprogress nofree nosync nounwind willreturn
declare void @llvm.lifetime.start.p0i8(i64 immarg, i8* nocapture) #1

; Function Attrs: nofree nounwind
declare noundef i32 @__isoc99_scanf(i8* nocapture noundef readonly, ...) local_unnamed_addr #2

; Function Attrs: argmemonly mustprogress nofree nounwind readonly willreturn
declare i64 @strlen(i8* nocapture) local_unnamed_addr #3

; Function Attrs: nofree nounwind
declare noundef i32 @printf(i8* nocapture noundef readonly, ...) local_unnamed_addr #2

; Function Attrs: argmemonly mustprogress nofree nosync nounwind willreturn
declare void @llvm.lifetime.end.p0i8(i64 immarg, i8* nocapture) #1

; Function Attrs: nofree nounwind
declare noundef i32 @puts(i8* nocapture noundef readonly) local_unnamed_addr #4


!llvm.module.flags = !{!0, !1, !2, !3}
!llvm.ident = !{!4}

!0 = !{i32 1, !"wchar_size", i32 4}
!1 = !{i32 7, !"PIC Level", i32 2}
!2 = !{i32 7, !"PIE Level", i32 2}
!3 = !{i32 7, !"uwtable", i32 1}
!4 = !{!"clang version 13.0.0"}
!5 = !{!6, !6, i64 0}
!6 = !{!"int", !7, i64 0}
!7 = !{!"omnipotent char", !8, i64 0}
!8 = !{!"Simple C/C++ TBAA"}
!9 = !{!7, !7, i64 0}
!10 = distinct !{!10, !11}
!11 = !{!"llvm.loop.mustprogress"}
!12 = distinct !{!12, !11}
!13 = distinct !{!13, !11}
